; Function Attrs: mustprogress nofree norecurse nosync nounwind willreturn memory(argmem: read) uwtable
define i32 @Cudd_ReadMinHit(ptr noundef readonly captures(none) %0) local_unnamed_addr #8 {
  %2 = getelementptr inbounds nuw i8, ptr %0, i64 120
  %3 = load double, ptr %2, align 8
  %4 = fmul double %3, 1.000000e+02
  %5 = fadd double %3, 1.000000e+00
  %6 = fdiv double %4, %5
  %7 = fadd double %6, 5.000000e-01
  %8 = fptoui double %7 to i32
  ret i32 %8
}